target datalayout = "e-m:e-p270:32:32-p271:32:32-p272:64:64-i64:64-i128:128-f80:128-n8:16:32:64-S128"
target triple = "x86_64-unknown-linux-gnu"

%"class.std::__cxx11::basic_string" = type { %"struct.std::__cxx11::basic_string<char>::_Alloc_hider", i64, %union.anon }
%"struct.std::__cxx11::basic_string<char>::_Alloc_hider" = type { ptr }
%union.anon = type { i64, [8 x i8] }
%"class.OpenColorIO_v2_4dev::GammaOpData" = type { %"class.OpenColorIO_v2_4dev::OpData", i32, %"class.std::vector.9", %"class.std::vector.9", %"class.std::vector.9", %"class.std::vector.9" }
%"class.OpenColorIO_v2_4dev::OpData" = type { ptr, %"class.std::mutex", %"class.OpenColorIO_v2_4dev::FormatMetadataImpl" }
%"class.std::mutex" = type { %"class.std::__mutex_base" }
%"class.std::__mutex_base" = type { %union.pthread_mutex_t }
%union.pthread_mutex_t = type { %struct.__pthread_mutex_s }
%struct.__pthread_mutex_s = type { i32, i32, i32, i32, i32, i16, i16, %struct.__pthread_internal_list }
%struct.__pthread_internal_list = type { ptr, ptr }
%"class.OpenColorIO_v2_4dev::FormatMetadataImpl" = type { %"class.OpenColorIO_v2_4dev::FormatMetadata", %"class.std::__cxx11::basic_string", %"class.std::__cxx11::basic_string", %"class.std::vector", %"class.std::vector.4" }
%"class.OpenColorIO_v2_4dev::FormatMetadata" = type { ptr }
%"class.std::vector" = type { %"struct.std::_Vector_base" }
%"struct.std::_Vector_base" = type { %"struct.std::_Vector_base<std::pair<std::__cxx11::basic_string<char>, std::__cxx11::basic_string<char>>, std::allocator<std::pair<std::__cxx11::basic_string<char>, std::__cxx11::basic_string<char>>>>::_Vector_impl" }
%"struct.std::_Vector_base<std::pair<std::__cxx11::basic_string<char>, std::__cxx11::basic_string<char>>, std::allocator<std::pair<std::__cxx11::basic_string<char>, std::__cxx11::basic_string<char>>>>::_Vector_impl" = type { %"struct.std::_Vector_base<std::pair<std::__cxx11::basic_string<char>, std::__cxx11::basic_string<char>>, std::allocator<std::pair<std::__cxx11::basic_string<char>, std::__cxx11::basic_string<char>>>>::_Vector_impl_data" }
%"struct.std::_Vector_base<std::pair<std::__cxx11::basic_string<char>, std::__cxx11::basic_string<char>>, std::allocator<std::pair<std::__cxx11::basic_string<char>, std::__cxx11::basic_string<char>>>>::_Vector_impl_data" = type { ptr, ptr, ptr }
%"class.std::vector.4" = type { %"struct.std::_Vector_base.5" }
%"struct.std::_Vector_base.5" = type { %"struct.std::_Vector_base<OpenColorIO_v2_4dev::FormatMetadataImpl, std::allocator<OpenColorIO_v2_4dev::FormatMetadataImpl>>::_Vector_impl" }
%"struct.std::_Vector_base<OpenColorIO_v2_4dev::FormatMetadataImpl, std::allocator<OpenColorIO_v2_4dev::FormatMetadataImpl>>::_Vector_impl" = type { %"struct.std::_Vector_base<OpenColorIO_v2_4dev::FormatMetadataImpl, std::allocator<OpenColorIO_v2_4dev::FormatMetadataImpl>>::_Vector_impl_data" }
%"struct.std::_Vector_base<OpenColorIO_v2_4dev::FormatMetadataImpl, std::allocator<OpenColorIO_v2_4dev::FormatMetadataImpl>>::_Vector_impl_data" = type { ptr, ptr, ptr }
%"class.std::vector.9" = type { %"struct.std::_Vector_base.10" }
%"struct.std::_Vector_base.10" = type { %"struct.std::_Vector_base<double, std::allocator<double>>::_Vector_impl" }
%"struct.std::_Vector_base<double, std::allocator<double>>::_Vector_impl" = type { %"struct.std::_Vector_base<double, std::allocator<double>>::_Vector_impl_data" }
%"struct.std::_Vector_base<double, std::allocator<double>>::_Vector_impl_data" = type { ptr, ptr, ptr }

; Function Attrs: mustprogress nounwind uwtable
define linkonce_odr hidden noundef i32 @_ZNK19OpenColorIO_v2_4dev11GammaOpData8getStyleEv(ptr noundef nonnull align 8 dereferenceable(272) %this) #5 comdat align 2 {
entry:
  %this.addr = alloca ptr, align 8
  store ptr %this, ptr %this.addr, align 8
  %this1 = load ptr, ptr %this.addr, align 8
  %m_style = getelementptr inbounds %"class.OpenColorIO_v2_4dev::GammaOpData", ptr %this1, i32 0, i32 1
  %0 = load i32, ptr %m_style, align 8
  ret i32 %0
}

; Function Attrs: mustprogress nounwind uwtable
define hidden noundef zeroext i1 @_ZNK19OpenColorIO_v2_4dev11GammaOpData10mayComposeERKS0_(ptr noundef nonnull align 8 dereferenceable(272) %this, ptr noundef nonnull align 8 dereferenceable(272) %B) #5 align 2 {
entry:
  %retval = alloca i1, align 1
  %this.addr = alloca ptr, align 8
  %B.addr = alloca ptr, align 8
  %styleA = alloca i32, align 4
  %styleB = alloca i32, align 4
  store ptr %this, ptr %this.addr, align 8
  store ptr %B, ptr %B.addr, align 8
  %this1 = load ptr, ptr %this.addr, align 8
  %call = call noundef i32 @_ZNK19OpenColorIO_v2_4dev11GammaOpData8getStyleEv(ptr noundef nonnull align 8 dereferenceable(272) %this1) #3
  store i32 %call, ptr %styleA, align 4
  %0 = load ptr, ptr %B.addr, align 8
  %call2 = call noundef i32 @_ZNK19OpenColorIO_v2_4dev11GammaOpData8getStyleEv(ptr noundef nonnull align 8 dereferenceable(272) %0) #3
  store i32 %call2, ptr %styleB, align 4
  %1 = load i32, ptr %styleA, align 4
  %cmp = icmp eq i32 %1, 0
  br i1 %cmp, label %if.then, label %lor.lhs.false

lor.lhs.false:                                    ; preds = %entry
  %2 = load i32, ptr %styleA, align 4
  %cmp3 = icmp eq i32 %2, 1
  br i1 %cmp3, label %if.then, label %if.else

if.then:                                          ; preds = %lor.lhs.false, %entry
  %3 = load i32, ptr %styleB, align 4
  switch i32 %3, label %sw.epilog [
    i32 0, label %sw.bb
    i32 1, label %sw.bb
    i32 2, label %sw.bb
    i32 3, label %sw.bb
    i32 4, label %sw.bb
    i32 5, label %sw.bb
    i32 6, label %sw.bb4
    i32 7, label %sw.bb4
    i32 8, label %sw.bb4
    i32 9, label %sw.bb4
  ]

sw.bb:                                            ; preds = %if.then, %if.then, %if.then, %if.then, %if.then, %if.then
  store i1 true, ptr %retval, align 1
  br label %return

sw.bb4:                                           ; preds = %if.then, %if.then, %if.then, %if.then
  store i1 false, ptr %retval, align 1
  br label %return

sw.epilog:                                        ; preds = %if.then
  br label %if.end21

if.else:                                          ; preds = %lor.lhs.false
  %4 = load i32, ptr %styleA, align 4
  %cmp5 = icmp eq i32 %4, 2
  br i1 %cmp5, label %if.then8, label %lor.lhs.false6

lor.lhs.false6:                                   ; preds = %if.else
  %5 = load i32, ptr %styleA, align 4
  %cmp7 = icmp eq i32 %5, 3
  br i1 %cmp7, label %if.then8, label %if.else12

if.then8:                                         ; preds = %lor.lhs.false6, %if.else
  %6 = load i32, ptr %styleB, align 4
  switch i32 %6, label %sw.epilog11 [
    i32 0, label %sw.bb9
    i32 1, label %sw.bb9
    i32 2, label %sw.bb9
    i32 3, label %sw.bb9
    i32 4, label %sw.bb10
    i32 5, label %sw.bb10
    i32 6, label %sw.bb10
    i32 7, label %sw.bb10
    i32 8, label %sw.bb10
    i32 9, label %sw.bb10
  ]

sw.bb9:                                           ; preds = %if.then8, %if.then8, %if.then8, %if.then8
  store i1 true, ptr %retval, align 1
  br label %return

sw.bb10:                                          ; preds = %if.then8, %if.then8, %if.then8, %if.then8, %if.then8, %if.then8
  store i1 false, ptr %retval, align 1
  br label %return

sw.epilog11:                                      ; preds = %if.then8
  br label %if.end20

if.else12:                                        ; preds = %lor.lhs.false6
  %7 = load i32, ptr %styleA, align 4
  %cmp13 = icmp eq i32 %7, 4
  br i1 %cmp13, label %if.then16, label %lor.lhs.false14

lor.lhs.false14:                                  ; preds = %if.else12
  %8 = load i32, ptr %styleA, align 4
  %cmp15 = icmp eq i32 %8, 5
  br i1 %cmp15, label %if.then16, label %if.end

if.then16:                                        ; preds = %lor.lhs.false14, %if.else12
  %9 = load i32, ptr %styleB, align 4
  switch i32 %9, label %sw.epilog19 [
    i32 0, label %sw.bb17
    i32 1, label %sw.bb17
    i32 4, label %sw.bb17
    i32 5, label %sw.bb17
    i32 2, label %sw.bb18
    i32 3, label %sw.bb18
    i32 6, label %sw.bb18
    i32 7, label %sw.bb18
    i32 8, label %sw.bb18
    i32 9, label %sw.bb18
  ]

sw.bb17:                                          ; preds = %if.then16, %if.then16, %if.then16, %if.then16
  store i1 true, ptr %retval, align 1
  br label %return

sw.bb18:                                          ; preds = %if.then16, %if.then16, %if.then16, %if.then16, %if.then16, %if.then16
  store i1 false, ptr %retval, align 1
  br label %return

sw.epilog19:                                      ; preds = %if.then16
  br label %if.end

if.end:                                           ; preds = %sw.epilog19, %lor.lhs.false14
  br label %if.end20

if.end20:                                         ; preds = %if.end, %sw.epilog11
  br label %if.end21

if.end21:                                         ; preds = %if.end20, %sw.epilog
  store i1 false, ptr %retval, align 1
  br label %return

return:                                           ; preds = %if.end21, %sw.bb18, %sw.bb17, %sw.bb10, %sw.bb9, %sw.bb4, %sw.bb
  %10 = load i1, ptr %retval, align 1
  ret i1 %10
}