; Function Attrs: mustprogress nofree norecurse nosync nounwind willreturn memory(argmem: read) uwtable
define hidden noundef zeroext i1 @_ZNK19OpenColorIO_v2_4dev11GammaOpData10mayComposeERKS0_(ptr nocapture noundef nonnull readonly align 8 dereferenceable(272) %this, ptr nocapture noundef nonnull readonly align 8 dereferenceable(272) %B) local_unnamed_addr #8 align 2 {
entry:
  %m_style.i = getelementptr inbounds i8, ptr %this, i64 168
  %0 = load i32, ptr %m_style.i, align 8
  %m_style.i10 = getelementptr inbounds i8, ptr %B, i64 168
  %1 = load i32, ptr %m_style.i10, align 8
  %or.cond = icmp ult i32 %0, 2
  br i1 %or.cond, label %if.then, label %if.else

if.then:                                          ; preds = %entry
  %2 = icmp ult i32 %1, 10
  br i1 %2, label %switch.lookup, label %return

if.else:                                          ; preds = %entry
  %3 = and i32 %0, -2
  switch i32 %3, label %return [
    i32 2, label %if.then8
    i32 4, label %if.then16
  ]

if.then8:                                         ; preds = %if.else
  %4 = icmp ult i32 %1, 10
  br i1 %4, label %switch.lookup11, label %return

if.then16:                                        ; preds = %if.else
  %5 = icmp ult i32 %1, 10
  br i1 %5, label %switch.lookup16, label %return

switch.lookup:                                    ; preds = %if.then
  %switch.cast = trunc i32 %1 to i10
  %switch.downshift = lshr i10 63, %switch.cast
  %6 = and i10 %switch.downshift, 1
  %switch.masked = icmp ne i10 %6, 0
  br label %return

switch.lookup11:                                  ; preds = %if.then8
  %switch.cast12 = trunc i32 %1 to i10
  %switch.downshift14 = lshr i10 15, %switch.cast12
  %7 = and i10 %switch.downshift14, 1
  %switch.masked15 = icmp ne i10 %7, 0
  br label %return

switch.lookup16:                                  ; preds = %if.then16
  %switch.cast17 = trunc i32 %1 to i10
  %switch.downshift19 = lshr i10 51, %switch.cast17
  %8 = and i10 %switch.downshift19, 1
  %switch.masked20 = icmp ne i10 %8, 0
  br label %return

return:                                           ; preds = %if.else, %if.then, %if.then8, %if.then16, %switch.lookup16, %switch.lookup11, %switch.lookup
  %retval.0 = phi i1 [ %switch.masked, %switch.lookup ], [ %switch.masked15, %switch.lookup11 ], [ %switch.masked20, %switch.lookup16 ], [ false, %if.then16 ], [ false, %if.then8 ], [ false, %if.then ], [ false, %if.else ]
  ret i1 %retval.0
}